; Function Attrs: mustprogress uwtable
define noundef zeroext i1 @_ZNK32pxrInternal_v0_24__pxrReserved__16UsdGeomXformable14GetTimeSamplesEPSt6vectorIdSaIdEE(ptr noundef nonnull align 8 dereferenceable(24) %0, ptr noundef %1) local_unnamed_addr #0 align 2 personality ptr @__gxx_personality_v0 {
  %3 = alloca %class.anon.142, align 1
  %4 = alloca %"class.pxrInternal_v0_24__pxrReserved__::GfInterval", align 8
  %5 = alloca i8, align 1
  %6 = alloca %"class.std::vector.98", align 8
  store i8 0, ptr %5, align 1
  call void @_ZNK32pxrInternal_v0_24__pxrReserved__16UsdGeomXformable19_GetOrderedXformOpsEPbb(ptr dead_on_unwind nonnull writable sret(%"class.std::vector.98") align 8 %6, ptr noundef nonnull align 8 dereferenceable(24) %0, ptr noundef nonnull %5, i1 noundef zeroext false)
  call void @llvm.lifetime.start.p0(i64 32, ptr nonnull %4)
  store double 0xFFF0000000000000, ptr %4, align 8, !alias.scope !63
  %7 = getelementptr inbounds nuw i8, ptr %4, i64 8
  store i8 0, ptr %7, align 8, !alias.scope !63
  %8 = getelementptr inbounds nuw i8, ptr %4, i64 16
  store double 0x7FF0000000000000, ptr %8, align 8, !alias.scope !63
  %9 = getelementptr inbounds i8, ptr %4, i64 24
  store i8 0, ptr %9, align 8, !alias.scope !63
  %10 = invoke noundef zeroext i1 @_ZN32pxrInternal_v0_24__pxrReserved__16UsdGeomXformable24GetTimeSamplesInIntervalERKSt6vectorINS_14UsdGeomXformOpESaIS2_EERKNS_10GfIntervalEPS1_IdSaIdEE(ptr noundef nonnull readonly align 8 dereferenceable(24) %6, ptr noundef nonnull align 8 dereferenceable(32) %4, ptr noundef %1)
          to label %11 unwind label %29

11:                                               ; preds = %2
  call void @llvm.lifetime.end.p0(i64 32, ptr nonnull %4)
  %12 = load ptr, ptr %6, align 8
  %13 = getelementptr inbounds nuw i8, ptr %6, i64 8
  %14 = load ptr, ptr %13, align 8
  %.not4.i.i.i.i = icmp eq ptr %12, %14
  br i1 %.not4.i.i.i.i, label %_ZSt8_DestroyIPN32pxrInternal_v0_24__pxrReserved__14UsdGeomXformOpES1_EvT_S3_RSaIT0_E.exit.i, label %.lr.ph.i.i.i.i

.lr.ph.i.i.i.i:                                   ; preds = %11, %_ZSt8_DestroyIN32pxrInternal_v0_24__pxrReserved__14UsdGeomXformOpEEvPT_.exit.i.i.i.i
  %.05.i.i.i.i = phi ptr [ %21, %_ZSt8_DestroyIN32pxrInternal_v0_24__pxrReserved__14UsdGeomXformOpEEvPT_.exit.i.i.i.i ], [ %12, %11 ]
  call void @llvm.lifetime.start.p0(i64 1, ptr nonnull %3)
  %15 = getelementptr inbounds nuw i8, ptr %.05.i.i.i.i, i64 120
  %16 = load i8, ptr %15, align 8
  %.not.i.i.i.i.i.i.i.i.i.i.i.i.i.i = icmp eq i8 %16, -1
  br i1 %.not.i.i.i.i.i.i.i.i.i.i.i.i.i.i, label %_ZSt8_DestroyIN32pxrInternal_v0_24__pxrReserved__14UsdGeomXformOpEEvPT_.exit.i.i.i.i, label %17

17:                                               ; preds = %.lr.ph.i.i.i.i
  invoke void @_ZSt10__do_visitIvZNSt8__detail9__variant16_Variant_storageILb0EJN32pxrInternal_v0_24__pxrReserved__12UsdAttributeENS3_17UsdAttributeQueryEEE8_M_resetEvEUlOT_E_JRSt7variantIJS4_S5_EEEEDcOT0_DpOT1_(ptr noundef nonnull align 1 dereferenceable(1) %3, ptr noundef nonnull align 8 dereferenceable(121) %.05.i.i.i.i)
          to label %.noexc.i.i.i.i.i.i.i.i.i.i.i.i.i unwind label %18

.noexc.i.i.i.i.i.i.i.i.i.i.i.i.i:                 ; preds = %17
  store i8 -1, ptr %15, align 8
  br label %_ZSt8_DestroyIN32pxrInternal_v0_24__pxrReserved__14UsdGeomXformOpEEvPT_.exit.i.i.i.i

18:                                               ; preds = %17
  %19 = landingpad { ptr, i32 }
          catch ptr null
  %20 = extractvalue { ptr, i32 } %19, 0
  call void @__clang_call_terminate(ptr %20) #22
  unreachable

_ZSt8_DestroyIN32pxrInternal_v0_24__pxrReserved__14UsdGeomXformOpEEvPT_.exit.i.i.i.i: ; preds = %.noexc.i.i.i.i.i.i.i.i.i.i.i.i.i, %.lr.ph.i.i.i.i
  call void @llvm.lifetime.end.p0(i64 1, ptr nonnull %3)
  %21 = getelementptr inbounds i8, ptr %.05.i.i.i.i, i64 136
  %.not.i.i.i.i = icmp eq ptr %21, %14
  br i1 %.not.i.i.i.i, label %_ZSt8_DestroyIPN32pxrInternal_v0_24__pxrReserved__14UsdGeomXformOpES1_EvT_S3_RSaIT0_E.exitthread-pre-split.i, label %.lr.ph.i.i.i.i, !llvm.loop !24

_ZSt8_DestroyIPN32pxrInternal_v0_24__pxrReserved__14UsdGeomXformOpES1_EvT_S3_RSaIT0_E.exitthread-pre-split.i: ; preds = %_ZSt8_DestroyIN32pxrInternal_v0_24__pxrReserved__14UsdGeomXformOpEEvPT_.exit.i.i.i.i
  %.pr.i = load ptr, ptr %6, align 8
  br label %_ZSt8_DestroyIPN32pxrInternal_v0_24__pxrReserved__14UsdGeomXformOpES1_EvT_S3_RSaIT0_E.exit.i

_ZSt8_DestroyIPN32pxrInternal_v0_24__pxrReserved__14UsdGeomXformOpES1_EvT_S3_RSaIT0_E.exit.i: ; preds = %_ZSt8_DestroyIPN32pxrInternal_v0_24__pxrReserved__14UsdGeomXformOpES1_EvT_S3_RSaIT0_E.exitthread-pre-split.i, %11
  %22 = phi ptr [ %.pr.i, %_ZSt8_DestroyIPN32pxrInternal_v0_24__pxrReserved__14UsdGeomXformOpES1_EvT_S3_RSaIT0_E.exitthread-pre-split.i ], [ %12, %11 ]
  %.not.i.i.i = icmp eq ptr %22, null
  br i1 %.not.i.i.i, label %_ZNSt6vectorIN32pxrInternal_v0_24__pxrReserved__14UsdGeomXformOpESaIS1_EED2Ev.exit, label %23

23:                                               ; preds = %_ZSt8_DestroyIPN32pxrInternal_v0_24__pxrReserved__14UsdGeomXformOpES1_EvT_S3_RSaIT0_E.exit.i
  %24 = getelementptr inbounds nuw i8, ptr %6, i64 16
  %25 = load ptr, ptr %24, align 8
  %26 = ptrtoint ptr %25 to i64
  %27 = ptrtoint ptr %22 to i64
  %28 = sub i64 %26, %27
  call void @_ZdlPvm(ptr noundef nonnull %22, i64 noundef %28) #21
  br label %_ZNSt6vectorIN32pxrInternal_v0_24__pxrReserved__14UsdGeomXformOpESaIS1_EED2Ev.exit

_ZNSt6vectorIN32pxrInternal_v0_24__pxrReserved__14UsdGeomXformOpESaIS1_EED2Ev.exit: ; preds = %_ZSt8_DestroyIPN32pxrInternal_v0_24__pxrReserved__14UsdGeomXformOpES1_EvT_S3_RSaIT0_E.exit.i, %23
  ret i1 %10

29:                                               ; preds = %2
  %30 = landingpad { ptr, i32 }
          cleanup
  call void @_ZNSt6vectorIN32pxrInternal_v0_24__pxrReserved__14UsdGeomXformOpESaIS1_EED2Ev(ptr noundef nonnull align 8 dereferenceable(24) %6) #20
  resume { ptr, i32 } %30
}